target datalayout = "e-m:e-p270:32:32-p271:32:32-p272:64:64-i64:64-i128:128-f80:128-n8:16:32:64-S128"
target triple = "x86_64-unknown-linux-gnu"

%"class.google::protobuf::io::CopyingInputStream" = type { ptr }
%"class.google::protobuf::io::IstreamInputStream::CopyingIstreamInputStream" = type { %"class.google::protobuf::io::CopyingInputStream", ptr }

; Function Attrs: mustprogress uwtable
define noundef i32 @_ZN6google8protobuf2io18IstreamInputStream25CopyingIstreamInputStream4ReadEPvi(ptr noundef nonnull align 8 dereferenceable(16) %this, ptr noundef %buffer, i32 noundef %size) unnamed_addr #4 align 2 {
entry:
  %retval = alloca i32, align 4
  %this.addr = alloca ptr, align 8
  %buffer.addr = alloca ptr, align 8
  %size.addr = alloca i32, align 4
  %result = alloca i32, align 4
  store ptr %this, ptr %this.addr, align 8
  store ptr %buffer, ptr %buffer.addr, align 8
  store i32 %size, ptr %size.addr, align 4
  %this1 = load ptr, ptr %this.addr, align 8
  %input_ = getelementptr inbounds %"class.google::protobuf::io::IstreamInputStream::CopyingIstreamInputStream", ptr %this1, i32 0, i32 1
  %0 = load ptr, ptr %input_, align 8
  %1 = load ptr, ptr %buffer.addr, align 8
  %2 = load i32, ptr %size.addr, align 4
  %conv = sext i32 %2 to i64
  %call = call noundef nonnull align 8 dereferenceable(16) ptr @_ZNSi4readEPcl(ptr noundef nonnull align 8 dereferenceable(16) %0, ptr noundef %1, i64 noundef %conv)
  %input_2 = getelementptr inbounds %"class.google::protobuf::io::IstreamInputStream::CopyingIstreamInputStream", ptr %this1, i32 0, i32 1
  %3 = load ptr, ptr %input_2, align 8
  %call3 = call noundef i64 @_ZNKSi6gcountEv(ptr noundef nonnull align 8 dereferenceable(16) %3)
  %conv4 = trunc i64 %call3 to i32
  store i32 %conv4, ptr %result, align 4
  %4 = load i32, ptr %result, align 4
  %cmp = icmp eq i32 %4, 0
  br i1 %cmp, label %land.lhs.true, label %if.end

land.lhs.true:                                    ; preds = %entry
  %input_5 = getelementptr inbounds %"class.google::protobuf::io::IstreamInputStream::CopyingIstreamInputStream", ptr %this1, i32 0, i32 1
  %5 = load ptr, ptr %input_5, align 8
  %vtable = load ptr, ptr %5, align 8
  %vbase.offset.ptr = getelementptr i8, ptr %vtable, i64 -24
  %vbase.offset = load i64, ptr %vbase.offset.ptr, align 8
  %add.ptr = getelementptr inbounds i8, ptr %5, i64 %vbase.offset
  %call6 = call noundef zeroext i1 @_ZNKSt9basic_iosIcSt11char_traitsIcEE4failEv(ptr noundef nonnull align 8 dereferenceable(264) %add.ptr)
  br i1 %call6, label %land.lhs.true7, label %if.end

land.lhs.true7:                                   ; preds = %land.lhs.true
  %input_8 = getelementptr inbounds %"class.google::protobuf::io::IstreamInputStream::CopyingIstreamInputStream", ptr %this1, i32 0, i32 1
  %6 = load ptr, ptr %input_8, align 8
  %vtable9 = load ptr, ptr %6, align 8
  %vbase.offset.ptr10 = getelementptr i8, ptr %vtable9, i64 -24
  %vbase.offset11 = load i64, ptr %vbase.offset.ptr10, align 8
  %add.ptr12 = getelementptr inbounds i8, ptr %6, i64 %vbase.offset11
  %call13 = call noundef zeroext i1 @_ZNKSt9basic_iosIcSt11char_traitsIcEE3eofEv(ptr noundef nonnull align 8 dereferenceable(264) %add.ptr12)
  br i1 %call13, label %if.end, label %if.then

if.then:                                          ; preds = %land.lhs.true7
  store i32 -1, ptr %retval, align 4
  br label %return

if.end:                                           ; preds = %land.lhs.true7, %land.lhs.true, %entry
  %7 = load i32, ptr %result, align 4
  store i32 %7, ptr %retval, align 4
  br label %return

return:                                           ; preds = %if.end, %if.then
  %8 = load i32, ptr %retval, align 4
  ret i32 %8
}