; Function Attrs: mustprogress uwtable
define noundef i32 @_ZN6google8protobuf2io18IstreamInputStream25CopyingIstreamInputStream4ReadEPvi(ptr nocapture noundef nonnull readonly align 8 dereferenceable(16) %this, ptr noundef %buffer, i32 noundef %size) unnamed_addr #3 align 2 {
entry:
  %input_ = getelementptr inbounds i8, ptr %this, i64 8
  %0 = load ptr, ptr %input_, align 8
  %conv = sext i32 %size to i64
  %call = tail call noundef nonnull align 8 dereferenceable(16) ptr @_ZNSi4readEPcl(ptr noundef nonnull align 8 dereferenceable(16) %0, ptr noundef %buffer, i64 noundef %conv)
  %1 = load ptr, ptr %input_, align 8
  %call3 = tail call noundef i64 @_ZNKSi6gcountEv(ptr noundef nonnull align 8 dereferenceable(16) %1)
  %conv4 = trunc i64 %call3 to i32
  %cmp = icmp eq i32 %conv4, 0
  br i1 %cmp, label %land.lhs.true, label %if.end

land.lhs.true:                                    ; preds = %entry
  %2 = load ptr, ptr %input_, align 8
  %vtable = load ptr, ptr %2, align 8
  %vbase.offset.ptr = getelementptr i8, ptr %vtable, i64 -24
  %vbase.offset = load i64, ptr %vbase.offset.ptr, align 8
  %add.ptr = getelementptr inbounds i8, ptr %2, i64 %vbase.offset
  %call6 = tail call noundef zeroext i1 @_ZNKSt9basic_iosIcSt11char_traitsIcEE4failEv(ptr noundef nonnull align 8 dereferenceable(264) %add.ptr)
  br i1 %call6, label %land.lhs.true7, label %if.end

land.lhs.true7:                                   ; preds = %land.lhs.true
  %3 = load ptr, ptr %input_, align 8
  %vtable9 = load ptr, ptr %3, align 8
  %vbase.offset.ptr10 = getelementptr i8, ptr %vtable9, i64 -24
  %vbase.offset11 = load i64, ptr %vbase.offset.ptr10, align 8
  %add.ptr12 = getelementptr inbounds i8, ptr %3, i64 %vbase.offset11
  %call13 = tail call noundef zeroext i1 @_ZNKSt9basic_iosIcSt11char_traitsIcEE3eofEv(ptr noundef nonnull align 8 dereferenceable(264) %add.ptr12)
  br i1 %call13, label %if.end, label %return

if.end:                                           ; preds = %land.lhs.true7, %land.lhs.true, %entry
  br label %return

return:                                           ; preds = %land.lhs.true7, %if.end
  %retval.0 = phi i32 [ %conv4, %if.end ], [ -1, %land.lhs.true7 ]
  ret i32 %retval.0
}